target datalayout = "e-m:e-p270:32:32-p271:32:32-p272:64:64-i64:64-f80:128-n8:16:32:64-S128"
target triple = "x86_64-pc-linux-gnu"

@.str = private unnamed_addr constant [3 x i8] c"%d\00", align 1

; Function Attrs: noinline nounwind uwtable
define dso_local i32 @main() #0 {
  %1 = alloca i32, align 4
  %2 = alloca i32, align 4
  %3 = alloca i32, align 4
  %4 = alloca i32, align 4
  %5 = alloca i32, align 4
  %6 = alloca [26 x i32], align 16
  %7 = alloca [26 x i32], align 16
  store i32 0, i32* %1, align 4
  %8 = call i32 (i8*, ...) @__isoc99_scanf(i8* getelementptr inbounds ([3 x i8], [3 x i8]* @.str, i64 0, i64 0), i32* %4)
  store i32 0, i32* %2, align 4
  br label %9

9:                                                ; preds = %18, %0
  %10 = load i32, i32* %2, align 4
  %11 = load i32, i32* %4, align 4
  %12 = icmp slt i32 %10, %11
  br i1 %12, label %13, label %21

13:                                               ; preds = %9
  %14 = load i32, i32* %2, align 4
  %15 = sext i32 %14 to i64
  %16 = getelementptr inbounds [26 x i32], [26 x i32]* %6, i64 0, i64 %15
  %17 = call i32 (i8*, ...) @__isoc99_scanf(i8* getelementptr inbounds ([3 x i8], [3 x i8]* @.str, i64 0, i64 0), i32* %16)
  br label %18

18:                                               ; preds = %13
  %19 = load i32, i32* %2, align 4
  %20 = add nsw i32 %19, 1
  store i32 %20, i32* %2, align 4
  br label %9

21:                                               ; preds = %9
  store i32 0, i32* %2, align 4
  br label %22

22:                                               ; preds = %30, %21
  %23 = load i32, i32* %2, align 4
  %24 = load i32, i32* %4, align 4
  %25 = icmp slt i32 %23, %24
  br i1 %25, label %26, label %33

26:                                               ; preds = %22
  %27 = load i32, i32* %2, align 4
  %28 = sext i32 %27 to i64
  %29 = getelementptr inbounds [26 x i32], [26 x i32]* %7, i64 0, i64 %28
  store i32 1, i32* %29, align 4
  br label %30

30:                                               ; preds = %26
  %31 = load i32, i32* %2, align 4
  %32 = add nsw i32 %31, 1
  store i32 %32, i32* %2, align 4
  br label %22

33:                                               ; preds = %22
  store i32 1, i32* %2, align 4
  br label %34

34:                                               ; preds = %107, %33
  %35 = load i32, i32* %2, align 4
  %36 = load i32, i32* %4, align 4
  %37 = icmp slt i32 %35, %36
  br i1 %37, label %38, label %110

38:                                               ; preds = %34
  store i32 0, i32* %3, align 4
  br label %39

39:                                               ; preds = %63, %38
  %40 = load i32, i32* %3, align 4
  %41 = load i32, i32* %2, align 4
  %42 = icmp slt i32 %40, %41
  br i1 %42, label %43, label %66

43:                                               ; preds = %39
  %44 = load i32, i32* %2, align 4
  %45 = sext i32 %44 to i64
  %46 = getelementptr inbounds [26 x i32], [26 x i32]* %6, i64 0, i64 %45
  %47 = load i32, i32* %46, align 4
  %48 = load i32, i32* %3, align 4
  %49 = sext i32 %48 to i64
  %50 = getelementptr inbounds [26 x i32], [26 x i32]* %6, i64 0, i64 %49
  %51 = load i32, i32* %50, align 4
  %52 = icmp sle i32 %47, %51
  br i1 %52, label %53, label %62

53:                                               ; preds = %43
  %54 = load i32, i32* %3, align 4
  %55 = sext i32 %54 to i64
  %56 = getelementptr inbounds [26 x i32], [26 x i32]* %7, i64 0, i64 %55
  %57 = load i32, i32* %56, align 4
  %58 = add nsw i32 %57, 1
  %59 = load i32, i32* %2, align 4
  %60 = sext i32 %59 to i64
  %61 = getelementptr inbounds [26 x i32], [26 x i32]* %7, i64 0, i64 %60
  store i32 %58, i32* %61, align 4
  br label %66

62:                                               ; preds = %43
  br label %63

63:                                               ; preds = %62
  %64 = load i32, i32* %3, align 4
  %65 = add nsw i32 %64, 1
  store i32 %65, i32* %3, align 4
  br label %39

66:                                               ; preds = %53, %39
  %67 = load i32, i32* %3, align 4
  %68 = add nsw i32 %67, 1
  store i32 %68, i32* %5, align 4
  br label %69

69:                                               ; preds = %103, %66
  %70 = load i32, i32* %5, align 4
  %71 = load i32, i32* %2, align 4
  %72 = icmp slt i32 %70, %71
  br i1 %72, label %73, label %106

73:                                               ; preds = %69
  %74 = load i32, i32* %5, align 4
  %75 = sext i32 %74 to i64
  %76 = getelementptr inbounds [26 x i32], [26 x i32]* %7, i64 0, i64 %75
  %77 = load i32, i32* %76, align 4
  %78 = load i32, i32* %2, align 4
  %79 = sext i32 %78 to i64
  %80 = getelementptr inbounds [26 x i32], [26 x i32]* %7, i64 0, i64 %79
  %81 = load i32, i32* %80, align 4
  %82 = icmp sge i32 %77, %81
  br i1 %82, label %83, label %102

83:                                               ; preds = %73
  %84 = load i32, i32* %2, align 4
  %85 = sext i32 %84 to i64
  %86 = getelementptr inbounds [26 x i32], [26 x i32]* %6, i64 0, i64 %85
  %87 = load i32, i32* %86, align 4
  %88 = load i32, i32* %5, align 4
  %89 = sext i32 %88 to i64
  %90 = getelementptr inbounds [26 x i32], [26 x i32]* %6, i64 0, i64 %89
  %91 = load i32, i32* %90, align 4
  %92 = icmp sle i32 %87, %91
  br i1 %92, label %93, label %102

93:                                               ; preds = %83
  %94 = load i32, i32* %5, align 4
  %95 = sext i32 %94 to i64
  %96 = getelementptr inbounds [26 x i32], [26 x i32]* %7, i64 0, i64 %95
  %97 = load i32, i32* %96, align 4
  %98 = add nsw i32 %97, 1
  %99 = load i32, i32* %2, align 4
  %100 = sext i32 %99 to i64
  %101 = getelementptr inbounds [26 x i32], [26 x i32]* %7, i64 0, i64 %100
  store i32 %98, i32* %101, align 4
  br label %103

102:                                              ; preds = %83, %73
  br label %103

103:                                              ; preds = %102, %93
  %104 = load i32, i32* %5, align 4
  %105 = add nsw i32 %104, 1
  store i32 %105, i32* %5, align 4
  br label %69

106:                                              ; preds = %69
  br label %107

107:                                              ; preds = %106
  %108 = load i32, i32* %2, align 4
  %109 = add nsw i32 %108, 1
  store i32 %109, i32* %2, align 4
  br label %34

110:                                              ; preds = %34
  store i32 0, i32* %2, align 4
  br label %111

111:                                              ; preds = %130, %110
  %112 = load i32, i32* %2, align 4
  %113 = load i32, i32* %4, align 4
  %114 = icmp slt i32 %112, %113
  br i1 %114, label %115, label %133

115:                                              ; preds = %111
  %116 = load i32, i32* %2, align 4
  %117 = sext i32 %116 to i64
  %118 = getelementptr inbounds [26 x i32], [26 x i32]* %7, i64 0, i64 %117
  %119 = load i32, i32* %118, align 4
  %120 = getelementptr inbounds [26 x i32], [26 x i32]* %7, i64 0, i64 0
  %121 = load i32, i32* %120, align 16
  %122 = icmp sgt i32 %119, %121
  br i1 %122, label %123, label %129

123:                                              ; preds = %115
  %124 = load i32, i32* %2, align 4
  %125 = sext i32 %124 to i64
  %126 = getelementptr inbounds [26 x i32], [26 x i32]* %7, i64 0, i64 %125
  %127 = load i32, i32* %126, align 4
  %128 = getelementptr inbounds [26 x i32], [26 x i32]* %7, i64 0, i64 0
  store i32 %127, i32* %128, align 16
  br label %129

129:                                              ; preds = %123, %115
  br label %130

130:                                              ; preds = %129
  %131 = load i32, i32* %2, align 4
  %132 = add nsw i32 %131, 1
  store i32 %132, i32* %2, align 4
  br label %111

133:                                              ; preds = %111
  %134 = getelementptr inbounds [26 x i32], [26 x i32]* %7, i64 0, i64 0
  %135 = load i32, i32* %134, align 16
  %136 = call i32 (i8*, ...) @printf(i8* getelementptr inbounds ([3 x i8], [3 x i8]* @.str, i64 0, i64 0), i32 %135)
  %137 = load i32, i32* %1, align 4
  ret i32 %137
}