; Function Attrs: nofree nounwind sspstrong uwtable
define dso_local i32 @main() local_unnamed_addr #0 {
  %1 = alloca i32, align 4
  %2 = alloca [26 x i32], align 16
  %3 = alloca [26 x i32], align 16
  %4 = bitcast i32* %1 to i8*
  call void @llvm.lifetime.start.p0i8(i64 4, i8* nonnull %4) #4
  %5 = bitcast [26 x i32]* %2 to i8*
  call void @llvm.lifetime.start.p0i8(i64 104, i8* nonnull %5) #4
  %6 = bitcast [26 x i32]* %3 to i8*
  call void @llvm.lifetime.start.p0i8(i64 104, i8* nonnull %6) #4
  %7 = call i32 (i8*, ...) @__isoc99_scanf(i8* getelementptr inbounds ([3 x i8], [3 x i8]* @.str, i64 0, i64 0), i32* nonnull %1)
  %8 = load i32, i32* %1, align 4, !tbaa !5
  %9 = icmp sgt i32 %8, 0
  br i1 %9, label %86, label %109

10:                                               ; preds = %86
  %11 = icmp sgt i32 %91, 0
  br i1 %11, label %12, label %109

12:                                               ; preds = %10
  %13 = zext i32 %91 to i64
  %14 = icmp ult i32 %91, 8
  br i1 %14, label %84, label %15

15:                                               ; preds = %12
  %16 = and i64 %13, 4294967288
  %17 = add nsw i64 %16, -8
  %18 = lshr exact i64 %17, 3
  %19 = add nuw nsw i64 %18, 1
  %20 = and i64 %19, 7
  %21 = icmp ult i64 %17, 56
  br i1 %21, label %69, label %22

22:                                               ; preds = %15
  %23 = and i64 %19, 4611686018427387896
  br label %24

24:                                               ; preds = %24, %22
  %25 = phi i64 [ 0, %22 ], [ %66, %24 ]
  %26 = phi i64 [ %23, %22 ], [ %67, %24 ]
  %27 = getelementptr inbounds [26 x i32], [26 x i32]* %3, i64 0, i64 %25
  %28 = bitcast i32* %27 to <4 x i32>*
  store <4 x i32> <i32 1, i32 1, i32 1, i32 1>, <4 x i32>* %28, align 16, !tbaa !5
  %29 = getelementptr inbounds i32, i32* %27, i64 4
  %30 = bitcast i32* %29 to <4 x i32>*
  store <4 x i32> <i32 1, i32 1, i32 1, i32 1>, <4 x i32>* %30, align 16, !tbaa !5
  %31 = or i64 %25, 8
  %32 = getelementptr inbounds [26 x i32], [26 x i32]* %3, i64 0, i64 %31
  %33 = bitcast i32* %32 to <4 x i32>*
  store <4 x i32> <i32 1, i32 1, i32 1, i32 1>, <4 x i32>* %33, align 16, !tbaa !5
  %34 = getelementptr inbounds i32, i32* %32, i64 4
  %35 = bitcast i32* %34 to <4 x i32>*
  store <4 x i32> <i32 1, i32 1, i32 1, i32 1>, <4 x i32>* %35, align 16, !tbaa !5
  %36 = or i64 %25, 16
  %37 = getelementptr inbounds [26 x i32], [26 x i32]* %3, i64 0, i64 %36
  %38 = bitcast i32* %37 to <4 x i32>*
  store <4 x i32> <i32 1, i32 1, i32 1, i32 1>, <4 x i32>* %38, align 16, !tbaa !5
  %39 = getelementptr inbounds i32, i32* %37, i64 4
  %40 = bitcast i32* %39 to <4 x i32>*
  store <4 x i32> <i32 1, i32 1, i32 1, i32 1>, <4 x i32>* %40, align 16, !tbaa !5
  %41 = or i64 %25, 24
  %42 = getelementptr inbounds [26 x i32], [26 x i32]* %3, i64 0, i64 %41
  %43 = bitcast i32* %42 to <4 x i32>*
  store <4 x i32> <i32 1, i32 1, i32 1, i32 1>, <4 x i32>* %43, align 16, !tbaa !5
  %44 = getelementptr inbounds i32, i32* %42, i64 4
  %45 = bitcast i32* %44 to <4 x i32>*
  store <4 x i32> <i32 1, i32 1, i32 1, i32 1>, <4 x i32>* %45, align 16, !tbaa !5
  %46 = or i64 %25, 32
  %47 = getelementptr inbounds [26 x i32], [26 x i32]* %3, i64 0, i64 %46
  %48 = bitcast i32* %47 to <4 x i32>*
  store <4 x i32> <i32 1, i32 1, i32 1, i32 1>, <4 x i32>* %48, align 16, !tbaa !5
  %49 = getelementptr inbounds i32, i32* %47, i64 4
  %50 = bitcast i32* %49 to <4 x i32>*
  store <4 x i32> <i32 1, i32 1, i32 1, i32 1>, <4 x i32>* %50, align 16, !tbaa !5
  %51 = or i64 %25, 40
  %52 = getelementptr inbounds [26 x i32], [26 x i32]* %3, i64 0, i64 %51
  %53 = bitcast i32* %52 to <4 x i32>*
  store <4 x i32> <i32 1, i32 1, i32 1, i32 1>, <4 x i32>* %53, align 16, !tbaa !5
  %54 = getelementptr inbounds i32, i32* %52, i64 4
  %55 = bitcast i32* %54 to <4 x i32>*
  store <4 x i32> <i32 1, i32 1, i32 1, i32 1>, <4 x i32>* %55, align 16, !tbaa !5
  %56 = or i64 %25, 48
  %57 = getelementptr inbounds [26 x i32], [26 x i32]* %3, i64 0, i64 %56
  %58 = bitcast i32* %57 to <4 x i32>*
  store <4 x i32> <i32 1, i32 1, i32 1, i32 1>, <4 x i32>* %58, align 16, !tbaa !5
  %59 = getelementptr inbounds i32, i32* %57, i64 4
  %60 = bitcast i32* %59 to <4 x i32>*
  store <4 x i32> <i32 1, i32 1, i32 1, i32 1>, <4 x i32>* %60, align 16, !tbaa !5
  %61 = or i64 %25, 56
  %62 = getelementptr inbounds [26 x i32], [26 x i32]* %3, i64 0, i64 %61
  %63 = bitcast i32* %62 to <4 x i32>*
  store <4 x i32> <i32 1, i32 1, i32 1, i32 1>, <4 x i32>* %63, align 16, !tbaa !5
  %64 = getelementptr inbounds i32, i32* %62, i64 4
  %65 = bitcast i32* %64 to <4 x i32>*
  store <4 x i32> <i32 1, i32 1, i32 1, i32 1>, <4 x i32>* %65, align 16, !tbaa !5
  %66 = add nuw i64 %25, 64
  %67 = add i64 %26, -8
  %68 = icmp eq i64 %67, 0
  br i1 %68, label %69, label %24, !llvm.loop !9

69:                                               ; preds = %24, %15
  %70 = phi i64 [ 0, %15 ], [ %66, %24 ]
  %71 = icmp eq i64 %20, 0
  br i1 %71, label %82, label %72

72:                                               ; preds = %69, %72
  %73 = phi i64 [ %79, %72 ], [ %70, %69 ]
  %74 = phi i64 [ %80, %72 ], [ %20, %69 ]
  %75 = getelementptr inbounds [26 x i32], [26 x i32]* %3, i64 0, i64 %73
  %76 = bitcast i32* %75 to <4 x i32>*
  store <4 x i32> <i32 1, i32 1, i32 1, i32 1>, <4 x i32>* %76, align 16, !tbaa !5
  %77 = getelementptr inbounds i32, i32* %75, i64 4
  %78 = bitcast i32* %77 to <4 x i32>*
  store <4 x i32> <i32 1, i32 1, i32 1, i32 1>, <4 x i32>* %78, align 16, !tbaa !5
  %79 = add nuw i64 %73, 8
  %80 = add i64 %74, -1
  %81 = icmp eq i64 %80, 0
  br i1 %81, label %82, label %72, !llvm.loop !12

82:                                               ; preds = %72, %69
  %83 = icmp eq i64 %16, %13
  br i1 %83, label %94, label %84

84:                                               ; preds = %12, %82
  %85 = phi i64 [ 0, %12 ], [ %16, %82 ]
  br label %98

86:                                               ; preds = %0, %86
  %87 = phi i64 [ %90, %86 ], [ 0, %0 ]
  %88 = getelementptr inbounds [26 x i32], [26 x i32]* %2, i64 0, i64 %87
  %89 = call i32 (i8*, ...) @__isoc99_scanf(i8* getelementptr inbounds ([3 x i8], [3 x i8]* @.str, i64 0, i64 0), i32* nonnull %88)
  %90 = add nuw nsw i64 %87, 1
  %91 = load i32, i32* %1, align 4, !tbaa !5
  %92 = sext i32 %91 to i64
  %93 = icmp slt i64 %90, %92
  br i1 %93, label %86, label %10, !llvm.loop !14

94:                                               ; preds = %98, %82
  %95 = icmp sgt i32 %91, 1
  br i1 %95, label %96, label %108

96:                                               ; preds = %94
  %97 = zext i32 %91 to i64
  br label %103

98:                                               ; preds = %84, %98
  %99 = phi i64 [ %101, %98 ], [ %85, %84 ]
  %100 = getelementptr inbounds [26 x i32], [26 x i32]* %3, i64 0, i64 %99
  store i32 1, i32* %100, align 4, !tbaa !5
  %101 = add nuw nsw i64 %99, 1
  %102 = icmp eq i64 %101, %13
  br i1 %102, label %94, label %98, !llvm.loop !15

103:                                              ; preds = %96, %255
  %104 = phi i64 [ 0, %96 ], [ %258, %255 ]
  %105 = phi i64 [ 1, %96 ], [ %256, %255 ]
  %106 = getelementptr inbounds [26 x i32], [26 x i32]* %2, i64 0, i64 %105
  %107 = load i32, i32* %106, align 4, !tbaa !5
  br label %192

108:                                              ; preds = %255, %94
  br i1 %11, label %112, label %109

109:                                              ; preds = %0, %10, %108
  %110 = getelementptr inbounds [26 x i32], [26 x i32]* %3, i64 0, i64 0
  %111 = load i32, i32* %110, align 16, !tbaa !5
  br label %268

112:                                              ; preds = %108
  %113 = getelementptr inbounds [26 x i32], [26 x i32]* %3, i64 0, i64 0
  %114 = zext i32 %91 to i64
  %115 = load i32, i32* %113, align 16, !tbaa !5
  %116 = icmp eq i32 %91, 1
  br i1 %116, label %268, label %117, !llvm.loop !17

117:                                              ; preds = %112
  %118 = add nsw i64 %13, -1
  %119 = icmp ult i64 %118, 8
  br i1 %119, label %189, label %120

120:                                              ; preds = %117
  %121 = and i64 %118, -8
  %122 = or i64 %121, 1
  %123 = insertelement <4 x i32> poison, i32 %115, i32 0
  %124 = shufflevector <4 x i32> %123, <4 x i32> poison, <4 x i32> zeroinitializer
  %125 = add nsw i64 %121, -8
  %126 = lshr exact i64 %125, 3
  %127 = add nuw nsw i64 %126, 1
  %128 = and i64 %127, 1
  %129 = icmp eq i64 %125, 0
  br i1 %129, label %164, label %130

130:                                              ; preds = %120
  %131 = and i64 %127, 4611686018427387902
  br label %132

132:                                              ; preds = %132, %130
  %133 = phi i64 [ 0, %130 ], [ %159, %132 ]
  %134 = phi <4 x i32> [ %124, %130 ], [ %157, %132 ]
  %135 = phi <4 x i32> [ %124, %130 ], [ %158, %132 ]
  %136 = phi i64 [ %131, %130 ], [ %160, %132 ]
  %137 = or i64 %133, 1
  %138 = getelementptr inbounds [26 x i32], [26 x i32]* %3, i64 0, i64 %137
  %139 = bitcast i32* %138 to <4 x i32>*
  %140 = load <4 x i32>, <4 x i32>* %139, align 4, !tbaa !5
  %141 = getelementptr inbounds i32, i32* %138, i64 4
  %142 = bitcast i32* %141 to <4 x i32>*
  %143 = load <4 x i32>, <4 x i32>* %142, align 4, !tbaa !5
  %144 = icmp sgt <4 x i32> %140, %134
  %145 = icmp sgt <4 x i32> %143, %135
  %146 = select <4 x i1> %144, <4 x i32> %140, <4 x i32> %134
  %147 = select <4 x i1> %145, <4 x i32> %143, <4 x i32> %135
  %148 = or i64 %133, 9
  %149 = getelementptr inbounds [26 x i32], [26 x i32]* %3, i64 0, i64 %148
  %150 = bitcast i32* %149 to <4 x i32>*
  %151 = load <4 x i32>, <4 x i32>* %150, align 4, !tbaa !5
  %152 = getelementptr inbounds i32, i32* %149, i64 4
  %153 = bitcast i32* %152 to <4 x i32>*
  %154 = load <4 x i32>, <4 x i32>* %153, align 4, !tbaa !5
  %155 = icmp sgt <4 x i32> %151, %146
  %156 = icmp sgt <4 x i32> %154, %147
  %157 = select <4 x i1> %155, <4 x i32> %151, <4 x i32> %146
  %158 = select <4 x i1> %156, <4 x i32> %154, <4 x i32> %147
  %159 = add nuw i64 %133, 16
  %160 = add i64 %136, -2
  %161 = icmp eq i64 %160, 0
  br i1 %161, label %162, label %132, !llvm.loop !18

162:                                              ; preds = %132
  %163 = or i64 %159, 1
  br label %164

164:                                              ; preds = %162, %120
  %165 = phi <4 x i32> [ undef, %120 ], [ %157, %162 ]
  %166 = phi <4 x i32> [ undef, %120 ], [ %158, %162 ]
  %167 = phi i64 [ 1, %120 ], [ %163, %162 ]
  %168 = phi <4 x i32> [ %124, %120 ], [ %157, %162 ]
  %169 = phi <4 x i32> [ %124, %120 ], [ %158, %162 ]
  %170 = icmp eq i64 %128, 0
  br i1 %170, label %182, label %171

171:                                              ; preds = %164
  %172 = getelementptr inbounds [26 x i32], [26 x i32]* %3, i64 0, i64 %167
  %173 = bitcast i32* %172 to <4 x i32>*
  %174 = load <4 x i32>, <4 x i32>* %173, align 4, !tbaa !5
  %175 = getelementptr inbounds i32, i32* %172, i64 4
  %176 = bitcast i32* %175 to <4 x i32>*
  %177 = load <4 x i32>, <4 x i32>* %176, align 4, !tbaa !5
  %178 = icmp sgt <4 x i32> %177, %169
  %179 = select <4 x i1> %178, <4 x i32> %177, <4 x i32> %169
  %180 = icmp sgt <4 x i32> %174, %168
  %181 = select <4 x i1> %180, <4 x i32> %174, <4 x i32> %168
  br label %182

182:                                              ; preds = %164, %171
  %183 = phi <4 x i32> [ %165, %164 ], [ %181, %171 ]
  %184 = phi <4 x i32> [ %166, %164 ], [ %179, %171 ]
  %185 = icmp sgt <4 x i32> %183, %184
  %186 = select <4 x i1> %185, <4 x i32> %183, <4 x i32> %184
  %187 = call i32 @llvm.vector.reduce.smax.v4i32(<4 x i32> %186)
  %188 = icmp eq i64 %118, %121
  br i1 %188, label %268, label %189

189:                                              ; preds = %117, %182
  %190 = phi i64 [ 1, %117 ], [ %122, %182 ]
  %191 = phi i32 [ %115, %117 ], [ %187, %182 ]
  br label %259

192:                                              ; preds = %103, %203
  %193 = phi i64 [ 0, %103 ], [ %204, %203 ]
  %194 = getelementptr inbounds [26 x i32], [26 x i32]* %2, i64 0, i64 %193
  %195 = load i32, i32* %194, align 4, !tbaa !5
  %196 = icmp sgt i32 %107, %195
  br i1 %196, label %203, label %197

197:                                              ; preds = %192
  %198 = and i64 %193, 4294967295
  %199 = getelementptr inbounds [26 x i32], [26 x i32]* %3, i64 0, i64 %198
  %200 = load i32, i32* %199, align 4, !tbaa !5
  %201 = add nsw i32 %200, 1
  %202 = getelementptr inbounds [26 x i32], [26 x i32]* %3, i64 0, i64 %105
  store i32 %201, i32* %202, align 4, !tbaa !5
  br label %206

203:                                              ; preds = %192
  %204 = add nuw nsw i64 %193, 1
  %205 = icmp eq i64 %204, %105
  br i1 %205, label %206, label %192, !llvm.loop !19

206:                                              ; preds = %203, %197
  %207 = phi i64 [ %193, %197 ], [ %105, %203 ]
  %208 = getelementptr inbounds [26 x i32], [26 x i32]* %3, i64 0, i64 %105
  %209 = add nuw i64 %207, 1
  %210 = and i64 %209, 4294967295
  %211 = icmp ult i64 %210, %105
  br i1 %211, label %212, label %255

212:                                              ; preds = %206
  %213 = and i64 %207, 4294967295
  %214 = add nuw nsw i64 %213, 1
  %215 = load i32, i32* %208, align 4, !tbaa !5
  %216 = sub i64 %104, %207
  %217 = add nuw i64 %207, 1
  %218 = and i64 %216, 1
  %219 = icmp eq i64 %218, 0
  br i1 %219, label %233, label %220

220:                                              ; preds = %212
  %221 = getelementptr inbounds [26 x i32], [26 x i32]* %3, i64 0, i64 %214
  %222 = load i32, i32* %221, align 4, !tbaa !5
  %223 = icmp slt i32 %222, %215
  br i1 %223, label %230, label %224

224:                                              ; preds = %220
  %225 = getelementptr inbounds [26 x i32], [26 x i32]* %2, i64 0, i64 %214
  %226 = load i32, i32* %225, align 4, !tbaa !5
  %227 = icmp sgt i32 %107, %226
  br i1 %227, label %230, label %228

228:                                              ; preds = %224
  %229 = add nsw i32 %222, 1
  store i32 %229, i32* %208, align 4, !tbaa !5
  br label %230

230:                                              ; preds = %228, %224, %220
  %231 = phi i32 [ %215, %220 ], [ %215, %224 ], [ %229, %228 ]
  %232 = add nuw nsw i64 %213, 2
  br label %233

233:                                              ; preds = %230, %212
  %234 = phi i32 [ %231, %230 ], [ %215, %212 ]
  %235 = phi i64 [ %232, %230 ], [ %214, %212 ]
  %236 = icmp eq i64 %104, %217
  br i1 %236, label %255, label %237

237:                                              ; preds = %233, %277
  %238 = phi i32 [ %278, %277 ], [ %234, %233 ]
  %239 = phi i64 [ %279, %277 ], [ %235, %233 ]
  %240 = getelementptr inbounds [26 x i32], [26 x i32]* %3, i64 0, i64 %239
  %241 = load i32, i32* %240, align 4, !tbaa !5
  %242 = icmp slt i32 %241, %238
  br i1 %242, label %249, label %243

243:                                              ; preds = %237
  %244 = getelementptr inbounds [26 x i32], [26 x i32]* %2, i64 0, i64 %239
  %245 = load i32, i32* %244, align 4, !tbaa !5
  %246 = icmp sgt i32 %107, %245
  br i1 %246, label %249, label %247

247:                                              ; preds = %243
  %248 = add nsw i32 %241, 1
  store i32 %248, i32* %208, align 4, !tbaa !5
  br label %249

249:                                              ; preds = %237, %243, %247
  %250 = phi i32 [ %238, %237 ], [ %238, %243 ], [ %248, %247 ]
  %251 = add nuw nsw i64 %239, 1
  %252 = getelementptr inbounds [26 x i32], [26 x i32]* %3, i64 0, i64 %251
  %253 = load i32, i32* %252, align 4, !tbaa !5
  %254 = icmp slt i32 %253, %250
  br i1 %254, label %277, label %271

255:                                              ; preds = %233, %277, %206
  %256 = add nuw nsw i64 %105, 1
  %257 = icmp eq i64 %256, %97
  %258 = add i64 %104, 1
  br i1 %257, label %108, label %103, !llvm.loop !20

259:                                              ; preds = %189, %259
  %260 = phi i64 [ %266, %259 ], [ %190, %189 ]
  %261 = phi i32 [ %265, %259 ], [ %191, %189 ]
  %262 = getelementptr inbounds [26 x i32], [26 x i32]* %3, i64 0, i64 %260
  %263 = load i32, i32* %262, align 4, !tbaa !5
  %264 = icmp sgt i32 %263, %261
  %265 = select i1 %264, i32 %263, i32 %261
  %266 = add nuw nsw i64 %260, 1
  %267 = icmp eq i64 %266, %114
  br i1 %267, label %268, label %259, !llvm.loop !21

268:                                              ; preds = %259, %112, %182, %109
  %269 = phi i32 [ %111, %109 ], [ %115, %112 ], [ %187, %182 ], [ %265, %259 ]
  %270 = call i32 (i8*, ...) @printf(i8* nonnull dereferenceable(1) getelementptr inbounds ([3 x i8], [3 x i8]* @.str, i64 0, i64 0), i32 %269)
  call void @llvm.lifetime.end.p0i8(i64 104, i8* nonnull %6) #4
  call void @llvm.lifetime.end.p0i8(i64 104, i8* nonnull %5) #4
  call void @llvm.lifetime.end.p0i8(i64 4, i8* nonnull %4) #4
  ret i32 0

271:                                              ; preds = %249
  %272 = getelementptr inbounds [26 x i32], [26 x i32]* %2, i64 0, i64 %251
  %273 = load i32, i32* %272, align 4, !tbaa !5
  %274 = icmp sgt i32 %107, %273
  br i1 %274, label %277, label %275

275:                                              ; preds = %271
  %276 = add nsw i32 %253, 1
  store i32 %276, i32* %208, align 4, !tbaa !5
  br label %277

277:                                              ; preds = %275, %271, %249
  %278 = phi i32 [ %250, %249 ], [ %250, %271 ], [ %276, %275 ]
  %279 = add nuw nsw i64 %239, 2
  %280 = icmp eq i64 %279, %105
  br i1 %280, label %255, label %237, !llvm.loop !22
}